#include <math.h>
#include <stdio.h>
#include <stdlib.h>
#include <string.h>

int main()
{
	int row,col,i,j,k;
	int a[100][100];
	scanf("%d %d",&row,&col);
	for(i=0;i<row;i++)
		for(j=0;j<col;j++)
			scanf("%d",&a[i][j]);
	for(k=0;k<row+col-1;k++)
		for(i=0;i<row;i++)
			for(j=0;j<col;j++)
			{
				if(i+j==k&&k-i>=0)
					printf("%d\n",a[i][k-i]);
			}
	return 0;
}
