; ModuleID = 'source-C-CXX/3/1030.c'
source_filename = "source-C-CXX/3/1030.c"
target datalayout = "e-m:e-p270:32:32-p271:32:32-p272:64:64-i64:64-f80:128-n8:16:32:64-S128"
target triple = "x86_64-pc-linux-gnu"

@.str = private unnamed_addr constant [6 x i8] c"%d %d\00", align 1
@.str.1 = private unnamed_addr constant [3 x i8] c"%d\00", align 1
@.str.2 = private unnamed_addr constant [4 x i8] c"%d\0A\00", align 1

; Function Attrs: nofree nounwind sspstrong uwtable
define dso_local i32 @main() local_unnamed_addr #0 {
  %1 = alloca i32, align 4
  %2 = alloca i32, align 4
  %3 = alloca [100 x [100 x i32]], align 16
  %4 = bitcast i32* %1 to i8*
  call void @llvm.lifetime.start.p0i8(i64 4, i8* nonnull %4) #3
  %5 = bitcast i32* %2 to i8*
  call void @llvm.lifetime.start.p0i8(i64 4, i8* nonnull %5) #3
  %6 = bitcast [100 x [100 x i32]]* %3 to i8*
  call void @llvm.lifetime.start.p0i8(i64 40000, i8* nonnull %6) #3
  %7 = call i32 (i8*, ...) @__isoc99_scanf(i8* getelementptr inbounds ([6 x i8], [6 x i8]* @.str, i64 0, i64 0), i32* nonnull %1, i32* nonnull %2)
  %8 = load i32, i32* %1, align 4, !tbaa !5
  %9 = icmp sgt i32 %8, 0
  %10 = load i32, i32* %2, align 4, !tbaa !5
  %11 = icmp sgt i32 %10, 0
  %12 = select i1 %9, i1 %11, i1 false
  br i1 %12, label %13, label %18

13:                                               ; preds = %0, %36
  %14 = phi i32 [ %37, %36 ], [ %8, %0 ]
  %15 = phi i32 [ %38, %36 ], [ %10, %0 ]
  %16 = phi i64 [ %39, %36 ], [ 0, %0 ]
  %17 = icmp sgt i32 %15, 0
  br i1 %17, label %26, label %36

18:                                               ; preds = %36, %0
  %19 = phi i32 [ %10, %0 ], [ %38, %36 ]
  %20 = phi i32 [ %8, %0 ], [ %37, %36 ]
  %21 = add i32 %20, -1
  %22 = add i32 %21, %19
  %23 = icmp sgt i32 %22, 0
  %24 = icmp sgt i32 %20, 0
  %25 = select i1 %23, i1 %24, i1 false
  br i1 %25, label %42, label %99

26:                                               ; preds = %13, %26
  %27 = phi i64 [ %30, %26 ], [ 0, %13 ]
  %28 = getelementptr inbounds [100 x [100 x i32]], [100 x [100 x i32]]* %3, i64 0, i64 %16, i64 %27
  %29 = call i32 (i8*, ...) @__isoc99_scanf(i8* getelementptr inbounds ([3 x i8], [3 x i8]* @.str.1, i64 0, i64 0), i32* nonnull %28)
  %30 = add nuw nsw i64 %27, 1
  %31 = load i32, i32* %2, align 4, !tbaa !5
  %32 = sext i32 %31 to i64
  %33 = icmp slt i64 %30, %32
  br i1 %33, label %26, label %34, !llvm.loop !9

34:                                               ; preds = %26
  %35 = load i32, i32* %1, align 4, !tbaa !5
  br label %36

36:                                               ; preds = %34, %13
  %37 = phi i32 [ %35, %34 ], [ %14, %13 ]
  %38 = phi i32 [ %31, %34 ], [ %15, %13 ]
  %39 = add nuw nsw i64 %16, 1
  %40 = sext i32 %37 to i64
  %41 = icmp slt i64 %39, %40
  br i1 %41, label %13, label %18, !llvm.loop !11

42:                                               ; preds = %18, %91
  %43 = phi i32 [ %92, %91 ], [ %19, %18 ]
  %44 = phi i32 [ %93, %91 ], [ %20, %18 ]
  %45 = phi i64 [ %94, %91 ], [ 0, %18 ]
  %46 = icmp sgt i32 %44, 0
  %47 = icmp sgt i32 %43, 0
  %48 = select i1 %46, i1 %47, i1 false
  br i1 %48, label %49, label %91

49:                                               ; preds = %42, %81
  %50 = phi i32 [ %82, %81 ], [ %43, %42 ]
  %51 = phi i32 [ %83, %81 ], [ %44, %42 ]
  %52 = phi i32 [ %84, %81 ], [ %44, %42 ]
  %53 = phi i32 [ %85, %81 ], [ %43, %42 ]
  %54 = phi i32 [ %86, %81 ], [ %43, %42 ]
  %55 = phi i64 [ %87, %81 ], [ 0, %42 ]
  %56 = phi i32 [ %88, %81 ], [ 0, %42 ]
  %57 = sub nsw i64 %45, %55
  %58 = and i64 %57, 4294967295
  %59 = getelementptr inbounds [100 x [100 x i32]], [100 x [100 x i32]]* %3, i64 0, i64 %55, i64 %58
  %60 = icmp sgt i32 %54, 0
  %61 = icmp sgt i64 %57, -1
  %62 = select i1 %60, i1 %61, i1 false
  br i1 %62, label %63, label %81

63:                                               ; preds = %49, %74
  %64 = phi i32 [ %75, %74 ], [ %50, %49 ]
  %65 = phi i32 [ %76, %74 ], [ %53, %49 ]
  %66 = phi i32 [ %77, %74 ], [ 0, %49 ]
  %67 = add nuw nsw i32 %66, %56
  %68 = zext i32 %67 to i64
  %69 = icmp eq i64 %45, %68
  br i1 %69, label %70, label %74

70:                                               ; preds = %63
  %71 = load i32, i32* %59, align 4, !tbaa !5
  %72 = call i32 (i8*, ...) @printf(i8* nonnull dereferenceable(1) getelementptr inbounds ([4 x i8], [4 x i8]* @.str.2, i64 0, i64 0), i32 %71)
  %73 = load i32, i32* %2, align 4, !tbaa !5
  br label %74

74:                                               ; preds = %70, %63
  %75 = phi i32 [ %73, %70 ], [ %64, %63 ]
  %76 = phi i32 [ %73, %70 ], [ %65, %63 ]
  %77 = add nuw nsw i32 %66, 1
  %78 = icmp slt i32 %77, %76
  br i1 %78, label %63, label %79, !llvm.loop !13

79:                                               ; preds = %74
  %80 = load i32, i32* %1, align 4, !tbaa !5
  br label %81

81:                                               ; preds = %79, %49
  %82 = phi i32 [ %75, %79 ], [ %50, %49 ]
  %83 = phi i32 [ %80, %79 ], [ %51, %49 ]
  %84 = phi i32 [ %80, %79 ], [ %52, %49 ]
  %85 = phi i32 [ %76, %79 ], [ %53, %49 ]
  %86 = phi i32 [ %76, %79 ], [ %54, %49 ]
  %87 = add nuw nsw i64 %55, 1
  %88 = add nuw nsw i32 %56, 1
  %89 = sext i32 %84 to i64
  %90 = icmp slt i64 %87, %89
  br i1 %90, label %49, label %91, !llvm.loop !14

91:                                               ; preds = %81, %42
  %92 = phi i32 [ %43, %42 ], [ %82, %81 ]
  %93 = phi i32 [ %44, %42 ], [ %83, %81 ]
  %94 = add nuw nsw i64 %45, 1
  %95 = add i32 %93, -1
  %96 = add i32 %95, %92
  %97 = sext i32 %96 to i64
  %98 = icmp slt i64 %94, %97
  br i1 %98, label %42, label %99, !llvm.loop !15

99:                                               ; preds = %91, %18
  call void @llvm.lifetime.end.p0i8(i64 40000, i8* nonnull %6) #3
  call void @llvm.lifetime.end.p0i8(i64 4, i8* nonnull %5) #3
  call void @llvm.lifetime.end.p0i8(i64 4, i8* nonnull %4) #3
  ret i32 0
}

; Function Attrs: argmemonly mustprogress nofree nosync nounwind willreturn
declare void @llvm.lifetime.start.p0i8(i64 immarg, i8* nocapture) #1

; Function Attrs: nofree nounwind
declare noundef i32 @__isoc99_scanf(i8* nocapture noundef readonly, ...) local_unnamed_addr #2

; Function Attrs: nofree nounwind
declare noundef i32 @printf(i8* nocapture noundef readonly, ...) local_unnamed_addr #2

; Function Attrs: argmemonly mustprogress nofree nosync nounwind willreturn
declare void @llvm.lifetime.end.p0i8(i64 immarg, i8* nocapture) #1


!llvm.module.flags = !{!0, !1, !2, !3}
!llvm.ident = !{!4}

!0 = !{i32 1, !"wchar_size", i32 4}
!1 = !{i32 7, !"PIC Level", i32 2}
!2 = !{i32 7, !"PIE Level", i32 2}
!3 = !{i32 7, !"uwtable", i32 1}
!4 = !{!"clang version 13.0.0"}
!5 = !{!6, !6, i64 0}
!6 = !{!"int", !7, i64 0}
!7 = !{!"omnipotent char", !8, i64 0}
!8 = !{!"Simple C/C++ TBAA"}
!9 = distinct !{!9, !10}
!10 = !{!"llvm.loop.mustprogress"}
!11 = distinct !{!11, !10, !12}
!12 = !{!"llvm.loop.unswitch.partial.disable"}
!13 = distinct !{!13, !10}
!14 = distinct !{!14, !10, !12}
!15 = distinct !{!15, !10, !12}
